target datalayout = "e-m:e-p270:32:32-p271:32:32-p272:64:64-i64:64-i128:128-f80:128-n8:16:32:64-S128"
target triple = "x86_64-pc-linux-gnu"

%"class.llvm::TargetLoweringObjectFile" = type { %"class.llvm::MCObjectFileInfo", ptr, i8, i8, i8, i8, i32, i32, i32, i32, ptr, ptr, ptr }
%"class.llvm::MCObjectFileInfo" = type { ptr, i8, i8, i8, i32, i32, ptr, ptr, ptr, ptr, ptr, ptr, ptr, ptr, ptr, ptr, ptr, ptr, ptr, ptr, ptr, ptr, ptr, ptr, ptr, ptr, ptr, ptr, ptr, ptr, ptr, ptr, ptr, ptr, ptr, ptr, ptr, ptr, ptr, ptr, ptr, ptr, ptr, ptr, ptr, ptr, ptr, ptr, ptr, ptr, ptr, ptr, ptr, ptr, ptr, ptr, ptr, ptr, ptr, ptr, ptr, ptr, ptr, ptr, ptr, ptr, ptr, ptr, ptr, ptr, ptr, ptr, ptr, ptr, ptr, ptr, ptr, ptr, ptr, ptr, ptr, ptr, ptr, ptr, ptr, ptr, ptr, ptr, ptr, ptr, ptr, ptr, ptr, ptr, ptr, ptr, ptr, ptr, ptr, ptr, ptr, ptr, ptr, ptr, %"struct.std::array", i8, ptr }
%"struct.std::array" = type { [11 x ptr] }

@_ZTVN4llvm24TargetLoweringObjectFileE = external unnamed_addr constant { [34 x ptr] }, align 8
@_ZTVN4llvm16MCObjectFileInfoE = external unnamed_addr constant { [5 x ptr] }, align 8

; Function Attrs: mustprogress nounwind uwtable
define linkonce_odr hidden void @_ZN4llvm16MCObjectFileInfoC2Ev(ptr noundef nonnull align 8 dereferenceable(912) %0) unnamed_addr #1 comdat align 2 {
  %2 = alloca ptr, align 8
  store ptr %0, ptr %2, align 8
  %3 = load ptr, ptr %2, align 8
  store ptr getelementptr inbounds inrange(-16, 24) ({ [5 x ptr] }, ptr @_ZTVN4llvm16MCObjectFileInfoE, i32 0, i32 0, i32 2), ptr %3, align 8
  %4 = getelementptr inbounds nuw %"class.llvm::MCObjectFileInfo", ptr %3, i32 0, i32 1
  store i8 0, ptr %4, align 8
  %5 = getelementptr inbounds nuw %"class.llvm::MCObjectFileInfo", ptr %3, i32 0, i32 2
  store i8 0, ptr %5, align 1
  %6 = getelementptr inbounds nuw %"class.llvm::MCObjectFileInfo", ptr %3, i32 0, i32 3
  store i8 0, ptr %6, align 2
  %7 = getelementptr inbounds nuw %"class.llvm::MCObjectFileInfo", ptr %3, i32 0, i32 4
  store i32 0, ptr %7, align 4
  %8 = getelementptr inbounds nuw %"class.llvm::MCObjectFileInfo", ptr %3, i32 0, i32 5
  store i32 0, ptr %8, align 8
  %9 = getelementptr inbounds nuw %"class.llvm::MCObjectFileInfo", ptr %3, i32 0, i32 6
  store ptr null, ptr %9, align 8
  %10 = getelementptr inbounds nuw %"class.llvm::MCObjectFileInfo", ptr %3, i32 0, i32 7
  store ptr null, ptr %10, align 8
  %11 = getelementptr inbounds nuw %"class.llvm::MCObjectFileInfo", ptr %3, i32 0, i32 8
  store ptr null, ptr %11, align 8
  %12 = getelementptr inbounds nuw %"class.llvm::MCObjectFileInfo", ptr %3, i32 0, i32 9
  store ptr null, ptr %12, align 8
  %13 = getelementptr inbounds nuw %"class.llvm::MCObjectFileInfo", ptr %3, i32 0, i32 10
  store ptr null, ptr %13, align 8
  %14 = getelementptr inbounds nuw %"class.llvm::MCObjectFileInfo", ptr %3, i32 0, i32 11
  store ptr null, ptr %14, align 8
  %15 = getelementptr inbounds nuw %"class.llvm::MCObjectFileInfo", ptr %3, i32 0, i32 12
  store ptr null, ptr %15, align 8
  %16 = getelementptr inbounds nuw %"class.llvm::MCObjectFileInfo", ptr %3, i32 0, i32 13
  store ptr null, ptr %16, align 8
  %17 = getelementptr inbounds nuw %"class.llvm::MCObjectFileInfo", ptr %3, i32 0, i32 14
  store ptr null, ptr %17, align 8
  %18 = getelementptr inbounds nuw %"class.llvm::MCObjectFileInfo", ptr %3, i32 0, i32 15
  store ptr null, ptr %18, align 8
  %19 = getelementptr inbounds nuw %"class.llvm::MCObjectFileInfo", ptr %3, i32 0, i32 16
  store ptr null, ptr %19, align 8
  %20 = getelementptr inbounds nuw %"class.llvm::MCObjectFileInfo", ptr %3, i32 0, i32 17
  store ptr null, ptr %20, align 8
  %21 = getelementptr inbounds nuw %"class.llvm::MCObjectFileInfo", ptr %3, i32 0, i32 18
  store ptr null, ptr %21, align 8
  %22 = getelementptr inbounds nuw %"class.llvm::MCObjectFileInfo", ptr %3, i32 0, i32 19
  store ptr null, ptr %22, align 8
  %23 = getelementptr inbounds nuw %"class.llvm::MCObjectFileInfo", ptr %3, i32 0, i32 20
  store ptr null, ptr %23, align 8
  %24 = getelementptr inbounds nuw %"class.llvm::MCObjectFileInfo", ptr %3, i32 0, i32 21
  store ptr null, ptr %24, align 8
  %25 = getelementptr inbounds nuw %"class.llvm::MCObjectFileInfo", ptr %3, i32 0, i32 22
  store ptr null, ptr %25, align 8
  %26 = getelementptr inbounds nuw %"class.llvm::MCObjectFileInfo", ptr %3, i32 0, i32 23
  store ptr null, ptr %26, align 8
  %27 = getelementptr inbounds nuw %"class.llvm::MCObjectFileInfo", ptr %3, i32 0, i32 24
  store ptr null, ptr %27, align 8
  %28 = getelementptr inbounds nuw %"class.llvm::MCObjectFileInfo", ptr %3, i32 0, i32 25
  store ptr null, ptr %28, align 8
  %29 = getelementptr inbounds nuw %"class.llvm::MCObjectFileInfo", ptr %3, i32 0, i32 26
  store ptr null, ptr %29, align 8
  %30 = getelementptr inbounds nuw %"class.llvm::MCObjectFileInfo", ptr %3, i32 0, i32 27
  store ptr null, ptr %30, align 8
  %31 = getelementptr inbounds nuw %"class.llvm::MCObjectFileInfo", ptr %3, i32 0, i32 28
  store ptr null, ptr %31, align 8
  %32 = getelementptr inbounds nuw %"class.llvm::MCObjectFileInfo", ptr %3, i32 0, i32 29
  store ptr null, ptr %32, align 8
  %33 = getelementptr inbounds nuw %"class.llvm::MCObjectFileInfo", ptr %3, i32 0, i32 30
  store ptr null, ptr %33, align 8
  %34 = getelementptr inbounds nuw %"class.llvm::MCObjectFileInfo", ptr %3, i32 0, i32 31
  store ptr null, ptr %34, align 8
  %35 = getelementptr inbounds nuw %"class.llvm::MCObjectFileInfo", ptr %3, i32 0, i32 32
  store ptr null, ptr %35, align 8
  %36 = getelementptr inbounds nuw %"class.llvm::MCObjectFileInfo", ptr %3, i32 0, i32 33
  store ptr null, ptr %36, align 8
  %37 = getelementptr inbounds nuw %"class.llvm::MCObjectFileInfo", ptr %3, i32 0, i32 34
  store ptr null, ptr %37, align 8
  %38 = getelementptr inbounds nuw %"class.llvm::MCObjectFileInfo", ptr %3, i32 0, i32 35
  store ptr null, ptr %38, align 8
  %39 = getelementptr inbounds nuw %"class.llvm::MCObjectFileInfo", ptr %3, i32 0, i32 36
  store ptr null, ptr %39, align 8
  %40 = getelementptr inbounds nuw %"class.llvm::MCObjectFileInfo", ptr %3, i32 0, i32 37
  store ptr null, ptr %40, align 8
  %41 = getelementptr inbounds nuw %"class.llvm::MCObjectFileInfo", ptr %3, i32 0, i32 38
  store ptr null, ptr %41, align 8
  %42 = getelementptr inbounds nuw %"class.llvm::MCObjectFileInfo", ptr %3, i32 0, i32 39
  store ptr null, ptr %42, align 8
  %43 = getelementptr inbounds nuw %"class.llvm::MCObjectFileInfo", ptr %3, i32 0, i32 40
  store ptr null, ptr %43, align 8
  %44 = getelementptr inbounds nuw %"class.llvm::MCObjectFileInfo", ptr %3, i32 0, i32 41
  store ptr null, ptr %44, align 8
  %45 = getelementptr inbounds nuw %"class.llvm::MCObjectFileInfo", ptr %3, i32 0, i32 42
  store ptr null, ptr %45, align 8
  %46 = getelementptr inbounds nuw %"class.llvm::MCObjectFileInfo", ptr %3, i32 0, i32 43
  store ptr null, ptr %46, align 8
  %47 = getelementptr inbounds nuw %"class.llvm::MCObjectFileInfo", ptr %3, i32 0, i32 44
  store ptr null, ptr %47, align 8
  %48 = getelementptr inbounds nuw %"class.llvm::MCObjectFileInfo", ptr %3, i32 0, i32 45
  store ptr null, ptr %48, align 8
  %49 = getelementptr inbounds nuw %"class.llvm::MCObjectFileInfo", ptr %3, i32 0, i32 46
  store ptr null, ptr %49, align 8
  %50 = getelementptr inbounds nuw %"class.llvm::MCObjectFileInfo", ptr %3, i32 0, i32 47
  store ptr null, ptr %50, align 8
  %51 = getelementptr inbounds nuw %"class.llvm::MCObjectFileInfo", ptr %3, i32 0, i32 48
  store ptr null, ptr %51, align 8
  %52 = getelementptr inbounds nuw %"class.llvm::MCObjectFileInfo", ptr %3, i32 0, i32 49
  store ptr null, ptr %52, align 8
  %53 = getelementptr inbounds nuw %"class.llvm::MCObjectFileInfo", ptr %3, i32 0, i32 50
  store ptr null, ptr %53, align 8
  %54 = getelementptr inbounds nuw %"class.llvm::MCObjectFileInfo", ptr %3, i32 0, i32 51
  store ptr null, ptr %54, align 8
  %55 = getelementptr inbounds nuw %"class.llvm::MCObjectFileInfo", ptr %3, i32 0, i32 52
  store ptr null, ptr %55, align 8
  %56 = getelementptr inbounds nuw %"class.llvm::MCObjectFileInfo", ptr %3, i32 0, i32 53
  store ptr null, ptr %56, align 8
  %57 = getelementptr inbounds nuw %"class.llvm::MCObjectFileInfo", ptr %3, i32 0, i32 54
  store ptr null, ptr %57, align 8
  %58 = getelementptr inbounds nuw %"class.llvm::MCObjectFileInfo", ptr %3, i32 0, i32 55
  store ptr null, ptr %58, align 8
  %59 = getelementptr inbounds nuw %"class.llvm::MCObjectFileInfo", ptr %3, i32 0, i32 56
  store ptr null, ptr %59, align 8
  %60 = getelementptr inbounds nuw %"class.llvm::MCObjectFileInfo", ptr %3, i32 0, i32 57
  store ptr null, ptr %60, align 8
  %61 = getelementptr inbounds nuw %"class.llvm::MCObjectFileInfo", ptr %3, i32 0, i32 58
  store ptr null, ptr %61, align 8
  %62 = getelementptr inbounds nuw %"class.llvm::MCObjectFileInfo", ptr %3, i32 0, i32 59
  store ptr null, ptr %62, align 8
  %63 = getelementptr inbounds nuw %"class.llvm::MCObjectFileInfo", ptr %3, i32 0, i32 60
  store ptr null, ptr %63, align 8
  %64 = getelementptr inbounds nuw %"class.llvm::MCObjectFileInfo", ptr %3, i32 0, i32 61
  store ptr null, ptr %64, align 8
  %65 = getelementptr inbounds nuw %"class.llvm::MCObjectFileInfo", ptr %3, i32 0, i32 62
  store ptr null, ptr %65, align 8
  %66 = getelementptr inbounds nuw %"class.llvm::MCObjectFileInfo", ptr %3, i32 0, i32 63
  store ptr null, ptr %66, align 8
  %67 = getelementptr inbounds nuw %"class.llvm::MCObjectFileInfo", ptr %3, i32 0, i32 64
  store ptr null, ptr %67, align 8
  %68 = getelementptr inbounds nuw %"class.llvm::MCObjectFileInfo", ptr %3, i32 0, i32 65
  store ptr null, ptr %68, align 8
  %69 = getelementptr inbounds nuw %"class.llvm::MCObjectFileInfo", ptr %3, i32 0, i32 66
  store ptr null, ptr %69, align 8
  %70 = getelementptr inbounds nuw %"class.llvm::MCObjectFileInfo", ptr %3, i32 0, i32 67
  store ptr null, ptr %70, align 8
  %71 = getelementptr inbounds nuw %"class.llvm::MCObjectFileInfo", ptr %3, i32 0, i32 68
  store ptr null, ptr %71, align 8
  %72 = getelementptr inbounds nuw %"class.llvm::MCObjectFileInfo", ptr %3, i32 0, i32 69
  store ptr null, ptr %72, align 8
  %73 = getelementptr inbounds nuw %"class.llvm::MCObjectFileInfo", ptr %3, i32 0, i32 70
  store ptr null, ptr %73, align 8
  %74 = getelementptr inbounds nuw %"class.llvm::MCObjectFileInfo", ptr %3, i32 0, i32 71
  store ptr null, ptr %74, align 8
  %75 = getelementptr inbounds nuw %"class.llvm::MCObjectFileInfo", ptr %3, i32 0, i32 72
  store ptr null, ptr %75, align 8
  %76 = getelementptr inbounds nuw %"class.llvm::MCObjectFileInfo", ptr %3, i32 0, i32 73
  store ptr null, ptr %76, align 8
  %77 = getelementptr inbounds nuw %"class.llvm::MCObjectFileInfo", ptr %3, i32 0, i32 74
  store ptr null, ptr %77, align 8
  %78 = getelementptr inbounds nuw %"class.llvm::MCObjectFileInfo", ptr %3, i32 0, i32 75
  store ptr null, ptr %78, align 8
  %79 = getelementptr inbounds nuw %"class.llvm::MCObjectFileInfo", ptr %3, i32 0, i32 76
  store ptr null, ptr %79, align 8
  %80 = getelementptr inbounds nuw %"class.llvm::MCObjectFileInfo", ptr %3, i32 0, i32 77
  store ptr null, ptr %80, align 8
  %81 = getelementptr inbounds nuw %"class.llvm::MCObjectFileInfo", ptr %3, i32 0, i32 78
  store ptr null, ptr %81, align 8
  %82 = getelementptr inbounds nuw %"class.llvm::MCObjectFileInfo", ptr %3, i32 0, i32 79
  store ptr null, ptr %82, align 8
  %83 = getelementptr inbounds nuw %"class.llvm::MCObjectFileInfo", ptr %3, i32 0, i32 80
  store ptr null, ptr %83, align 8
  %84 = getelementptr inbounds nuw %"class.llvm::MCObjectFileInfo", ptr %3, i32 0, i32 81
  store ptr null, ptr %84, align 8
  %85 = getelementptr inbounds nuw %"class.llvm::MCObjectFileInfo", ptr %3, i32 0, i32 82
  store ptr null, ptr %85, align 8
  %86 = getelementptr inbounds nuw %"class.llvm::MCObjectFileInfo", ptr %3, i32 0, i32 83
  store ptr null, ptr %86, align 8
  %87 = getelementptr inbounds nuw %"class.llvm::MCObjectFileInfo", ptr %3, i32 0, i32 84
  store ptr null, ptr %87, align 8
  %88 = getelementptr inbounds nuw %"class.llvm::MCObjectFileInfo", ptr %3, i32 0, i32 85
  store ptr null, ptr %88, align 8
  %89 = getelementptr inbounds nuw %"class.llvm::MCObjectFileInfo", ptr %3, i32 0, i32 86
  store ptr null, ptr %89, align 8
  %90 = getelementptr inbounds nuw %"class.llvm::MCObjectFileInfo", ptr %3, i32 0, i32 87
  store ptr null, ptr %90, align 8
  %91 = getelementptr inbounds nuw %"class.llvm::MCObjectFileInfo", ptr %3, i32 0, i32 88
  store ptr null, ptr %91, align 8
  %92 = getelementptr inbounds nuw %"class.llvm::MCObjectFileInfo", ptr %3, i32 0, i32 89
  store ptr null, ptr %92, align 8
  %93 = getelementptr inbounds nuw %"class.llvm::MCObjectFileInfo", ptr %3, i32 0, i32 90
  store ptr null, ptr %93, align 8
  %94 = getelementptr inbounds nuw %"class.llvm::MCObjectFileInfo", ptr %3, i32 0, i32 91
  store ptr null, ptr %94, align 8
  %95 = getelementptr inbounds nuw %"class.llvm::MCObjectFileInfo", ptr %3, i32 0, i32 92
  store ptr null, ptr %95, align 8
  %96 = getelementptr inbounds nuw %"class.llvm::MCObjectFileInfo", ptr %3, i32 0, i32 93
  store ptr null, ptr %96, align 8
  %97 = getelementptr inbounds nuw %"class.llvm::MCObjectFileInfo", ptr %3, i32 0, i32 94
  store ptr null, ptr %97, align 8
  %98 = getelementptr inbounds nuw %"class.llvm::MCObjectFileInfo", ptr %3, i32 0, i32 95
  store ptr null, ptr %98, align 8
  %99 = getelementptr inbounds nuw %"class.llvm::MCObjectFileInfo", ptr %3, i32 0, i32 96
  store ptr null, ptr %99, align 8
  %100 = getelementptr inbounds nuw %"class.llvm::MCObjectFileInfo", ptr %3, i32 0, i32 97
  store ptr null, ptr %100, align 8
  %101 = getelementptr inbounds nuw %"class.llvm::MCObjectFileInfo", ptr %3, i32 0, i32 98
  store ptr null, ptr %101, align 8
  %102 = getelementptr inbounds nuw %"class.llvm::MCObjectFileInfo", ptr %3, i32 0, i32 99
  store ptr null, ptr %102, align 8
  %103 = getelementptr inbounds nuw %"class.llvm::MCObjectFileInfo", ptr %3, i32 0, i32 100
  store ptr null, ptr %103, align 8
  %104 = getelementptr inbounds nuw %"class.llvm::MCObjectFileInfo", ptr %3, i32 0, i32 101
  store ptr null, ptr %104, align 8
  %105 = getelementptr inbounds nuw %"class.llvm::MCObjectFileInfo", ptr %3, i32 0, i32 102
  store ptr null, ptr %105, align 8
  %106 = getelementptr inbounds nuw %"class.llvm::MCObjectFileInfo", ptr %3, i32 0, i32 103
  store ptr null, ptr %106, align 8
  %107 = getelementptr inbounds nuw %"class.llvm::MCObjectFileInfo", ptr %3, i32 0, i32 104
  %108 = getelementptr inbounds nuw %"struct.std::array", ptr %107, i32 0, i32 0
  call void @llvm.memset.p0.i64(ptr align 8 %108, i8 0, i64 88, i1 false)
  %109 = getelementptr inbounds nuw %"class.llvm::MCObjectFileInfo", ptr %3, i32 0, i32 105
  store i8 0, ptr %109, align 8
  %110 = getelementptr inbounds nuw %"class.llvm::MCObjectFileInfo", ptr %3, i32 0, i32 106
  store ptr null, ptr %110, align 8
  ret void
}

; Function Attrs: mustprogress nounwind uwtable
define linkonce_odr hidden void @_ZN4llvm24TargetLoweringObjectFileC2Ev(ptr noundef nonnull align 8 dereferenceable(968) %0) unnamed_addr #1 comdat align 2 {
  %2 = alloca ptr, align 8
  store ptr %0, ptr %2, align 8
  %3 = load ptr, ptr %2, align 8
  call void @_ZN4llvm16MCObjectFileInfoC2Ev(ptr noundef nonnull align 8 dereferenceable(912) %3) #2
  store ptr getelementptr inbounds inrange(-16, 256) ({ [34 x ptr] }, ptr @_ZTVN4llvm24TargetLoweringObjectFileE, i32 0, i32 0, i32 2), ptr %3, align 8
  %4 = getelementptr inbounds nuw %"class.llvm::TargetLoweringObjectFile", ptr %3, i32 0, i32 1
  store ptr null, ptr %4, align 8
  %5 = getelementptr inbounds nuw %"class.llvm::TargetLoweringObjectFile", ptr %3, i32 0, i32 2
  store i8 0, ptr %5, align 8
  %6 = getelementptr inbounds nuw %"class.llvm::TargetLoweringObjectFile", ptr %3, i32 0, i32 3
  store i8 1, ptr %6, align 1
  %7 = getelementptr inbounds nuw %"class.llvm::TargetLoweringObjectFile", ptr %3, i32 0, i32 4
  store i8 1, ptr %7, align 2
  %8 = getelementptr inbounds nuw %"class.llvm::TargetLoweringObjectFile", ptr %3, i32 0, i32 5
  store i8 0, ptr %8, align 1
  %9 = getelementptr inbounds nuw %"class.llvm::TargetLoweringObjectFile", ptr %3, i32 0, i32 6
  store i32 0, ptr %9, align 4
  %10 = getelementptr inbounds nuw %"class.llvm::TargetLoweringObjectFile", ptr %3, i32 0, i32 7
  store i32 0, ptr %10, align 8
  %11 = getelementptr inbounds nuw %"class.llvm::TargetLoweringObjectFile", ptr %3, i32 0, i32 8
  store i32 0, ptr %11, align 4
  %12 = getelementptr inbounds nuw %"class.llvm::TargetLoweringObjectFile", ptr %3, i32 0, i32 9
  store i32 0, ptr %12, align 8
  %13 = getelementptr inbounds nuw %"class.llvm::TargetLoweringObjectFile", ptr %3, i32 0, i32 10
  store ptr null, ptr %13, align 8
  %14 = getelementptr inbounds nuw %"class.llvm::TargetLoweringObjectFile", ptr %3, i32 0, i32 11
  store ptr null, ptr %14, align 8
  %15 = getelementptr inbounds nuw %"class.llvm::TargetLoweringObjectFile", ptr %3, i32 0, i32 12
  store ptr null, ptr %15, align 8
  ret void
}

; Function Attrs: mustprogress nounwind uwtable
define dso_local void @_ZN4llvm28TargetLoweringObjectFileGOFFC2Ev(ptr noundef nonnull align 8 dereferenceable(968) %0) unnamed_addr #1 align 2 {
  %2 = alloca ptr, align 8
  store ptr %0, ptr %2, align 8
  %3 = load ptr, ptr %2, align 8
  call void @_ZN4llvm24TargetLoweringObjectFileC2Ev(ptr noundef nonnull align 8 dereferenceable(968) %3) #2
  store ptr getelementptr inbounds inrange(-16, 256) ({ [34 x ptr] }, ptr @_ZTVN4llvm28TargetLoweringObjectFileGOFFE, i32 0, i32 0, i32 2), ptr %3, align 8
  ret void
}