; Function Attrs: mustprogress nofree norecurse nosync nounwind willreturn memory(argmem: write) uwtable
define dso_local void @_ZN4llvm28TargetLoweringObjectFileGOFFC2Ev(ptr nocapture noundef nonnull writeonly align 8 dereferenceable(968) %0) unnamed_addr #2 align 2 {
  %2 = getelementptr inbounds nuw i8, ptr %0, i64 8
  store i8 0, ptr %2, align 8
  %3 = getelementptr inbounds nuw i8, ptr %0, i64 9
  store i8 0, ptr %3, align 1
  %4 = getelementptr inbounds nuw i8, ptr %0, i64 10
  store i8 0, ptr %4, align 2
  %5 = getelementptr inbounds nuw i8, ptr %0, i64 12
  store i32 0, ptr %5, align 4
  %6 = getelementptr inbounds nuw i8, ptr %0, i64 16
  store i32 0, ptr %6, align 8
  %7 = getelementptr inbounds nuw i8, ptr %0, i64 24
  %8 = getelementptr inbounds nuw i8, ptr %0, i64 904
  store ptr null, ptr %8, align 8
  tail call void @llvm.memset.p0.i64(ptr noundef nonnull align 8 dereferenceable(873) %7, i8 0, i64 873, i1 false)
  %9 = getelementptr inbounds nuw i8, ptr %0, i64 912
  store ptr null, ptr %9, align 8
  %10 = getelementptr inbounds nuw i8, ptr %0, i64 920
  store i8 0, ptr %10, align 8
  %11 = getelementptr inbounds nuw i8, ptr %0, i64 921
  store i8 1, ptr %11, align 1
  %12 = getelementptr inbounds nuw i8, ptr %0, i64 922
  store i8 1, ptr %12, align 2
  %13 = getelementptr inbounds nuw i8, ptr %0, i64 923
  %14 = getelementptr inbounds nuw i8, ptr %0, i64 944
  tail call void @llvm.memset.p0.i64(ptr noundef nonnull align 1 dereferenceable(17) %13, i8 0, i64 17, i1 false)
  tail call void @llvm.memset.p0.i64(ptr noundef nonnull align 8 dereferenceable(24) %14, i8 0, i64 24, i1 false)
  store ptr getelementptr inbounds inrange(-16, 256) (i8, ptr @_ZTVN4llvm28TargetLoweringObjectFileGOFFE, i64 16), ptr %0, align 8
  ret void
}